; Function Attrs: inlinehint mustprogress uwtable
define internal void @"_ZN12_GLOBAL__N_13$_68__invokeERKN5vcpkg10VcpkgPathsE"(ptr noundef nonnull align 8 dereferenceable(440) %0) #8 align 2 personality ptr @__gxx_personality_v0 {
  %2 = alloca %"struct.vcpkg::LocalizedString", align 8
  %3 = tail call noundef nonnull align 8 dereferenceable(88) ptr @_ZNK5vcpkg10VcpkgPaths14get_triplet_dbEv(ptr noundef nonnull align 8 dereferenceable(440) %0)
  call void @llvm.lifetime.start.p0(i64 32, ptr nonnull %2) #23
  %4 = getelementptr inbounds nuw i8, ptr %2, i64 16
  store ptr %4, ptr %2, align 8, !tbaa !64
  %5 = getelementptr inbounds nuw i8, ptr %2, i64 8
  store i64 0, ptr %5, align 8, !tbaa !59
  store i8 0, ptr %4, align 8, !tbaa !60
  invoke void @_ZN5vcpkg31append_help_topic_valid_tripletERNS_15LocalizedStringERKNS_15TripletDatabaseE(ptr noundef nonnull align 8 dereferenceable(32) %2, ptr noundef nonnull align 8 dereferenceable(88) %3)
          to label %6 unwind label %16

6:                                                ; preds = %1
  %7 = call { ptr, i64 } @_ZNK5vcpkg15LocalizedStringcvNS_10StringViewEEv(ptr noundef nonnull align 8 dereferenceable(32) %2) #23
  %8 = extractvalue { ptr, i64 } %7, 0
  %9 = extractvalue { ptr, i64 } %7, 1
  invoke void @_ZN5vcpkg3msg22write_unlocalized_textENS_5ColorENS_10StringViewE(i8 noundef signext 0, ptr %8, i64 %9)
          to label %_ZN5vcpkg3msg5printERKNS_15LocalizedStringE.exit.i.i unwind label %16

_ZN5vcpkg3msg5printERKNS_15LocalizedStringE.exit.i.i: ; preds = %6
  %10 = load ptr, ptr %2, align 8, !tbaa !56
  %11 = icmp eq ptr %10, %4
  br i1 %11, label %_ZNKSt7__cxx1112basic_stringIcSt11char_traitsIcESaIcEE11_M_is_localEv.exit.thread.i.i.i.i.i, label %_ZNKSt7__cxx1112basic_stringIcSt11char_traitsIcESaIcEE11_M_is_localEv.exit.i.i.i.i.i

_ZNKSt7__cxx1112basic_stringIcSt11char_traitsIcESaIcEE11_M_is_localEv.exit.thread.i.i.i.i.i: ; preds = %_ZN5vcpkg3msg5printERKNS_15LocalizedStringE.exit.i.i
  %12 = load i64, ptr %5, align 8, !tbaa !59
  %13 = icmp ult i64 %12, 16
  call void @llvm.assume(i1 %13)
  br label %"_ZNK12_GLOBAL__N_13$_6clERKN5vcpkg10VcpkgPathsE.exit"

_ZNKSt7__cxx1112basic_stringIcSt11char_traitsIcESaIcEE11_M_is_localEv.exit.i.i.i.i.i: ; preds = %_ZN5vcpkg3msg5printERKNS_15LocalizedStringE.exit.i.i
  %14 = load i64, ptr %4, align 8, !tbaa !60
  %15 = add i64 %14, 1
  call void @_ZdlPvm(ptr noundef %10, i64 noundef %15) #26
  br label %"_ZNK12_GLOBAL__N_13$_6clERKN5vcpkg10VcpkgPathsE.exit"

16:                                               ; preds = %6, %1
  %17 = landingpad { ptr, i32 }
          cleanup
  %18 = load ptr, ptr %2, align 8, !tbaa !56
  %19 = icmp eq ptr %18, %4
  br i1 %19, label %_ZNKSt7__cxx1112basic_stringIcSt11char_traitsIcESaIcEE11_M_is_localEv.exit.thread.i.i.i3.i.i, label %_ZNKSt7__cxx1112basic_stringIcSt11char_traitsIcESaIcEE11_M_is_localEv.exit.i.i.i2.i.i

_ZNKSt7__cxx1112basic_stringIcSt11char_traitsIcESaIcEE11_M_is_localEv.exit.thread.i.i.i3.i.i: ; preds = %16
  %20 = load i64, ptr %5, align 8, !tbaa !59
  %21 = icmp ult i64 %20, 16
  call void @llvm.assume(i1 %21)
  br label %_ZN5vcpkg15LocalizedStringD2Ev.exit4.i.i

_ZNKSt7__cxx1112basic_stringIcSt11char_traitsIcESaIcEE11_M_is_localEv.exit.i.i.i2.i.i: ; preds = %16
  %22 = load i64, ptr %4, align 8, !tbaa !60
  %23 = add i64 %22, 1
  call void @_ZdlPvm(ptr noundef %18, i64 noundef %23) #26
  br label %_ZN5vcpkg15LocalizedStringD2Ev.exit4.i.i

_ZN5vcpkg15LocalizedStringD2Ev.exit4.i.i:         ; preds = %_ZNKSt7__cxx1112basic_stringIcSt11char_traitsIcESaIcEE11_M_is_localEv.exit.i.i.i2.i.i, %_ZNKSt7__cxx1112basic_stringIcSt11char_traitsIcESaIcEE11_M_is_localEv.exit.thread.i.i.i3.i.i
  call void @llvm.lifetime.end.p0(i64 32, ptr nonnull %2) #23
  resume { ptr, i32 } %17

"_ZNK12_GLOBAL__N_13$_6clERKN5vcpkg10VcpkgPathsE.exit": ; preds = %_ZNKSt7__cxx1112basic_stringIcSt11char_traitsIcESaIcEE11_M_is_localEv.exit.thread.i.i.i.i.i, %_ZNKSt7__cxx1112basic_stringIcSt11char_traitsIcESaIcEE11_M_is_localEv.exit.i.i.i.i.i
  call void @llvm.lifetime.end.p0(i64 32, ptr nonnull %2) #23
  ret void
}